target datalayout = "e-m:e-p270:32:32-p271:32:32-p272:64:64-i64:64-i128:128-f80:128-n8:16:32:64-S128"
target triple = "x86_64-pc-linux-gnu"

%struct.FunctionCallInfoBaseData = type { ptr, ptr, ptr, i32, i8, i16, [0 x %struct.NullableDatum] }
%struct.NullableDatum = type { i64, i8 }
%struct.FmgrInfo = type { ptr, i32, i16, i8, i8, i8, ptr, ptr, ptr }
%struct.TypeCacheEntry = type { i32, i32, i16, i8, i8, i8, i8, i32, i32, i32, i32, i32, i32, i32, i32, i32, i32, i32, i32, i32, i32, %struct.FmgrInfo, %struct.FmgrInfo, %struct.FmgrInfo, %struct.FmgrInfo, ptr, i64, ptr, i32, i32, %struct.FmgrInfo, %struct.FmgrInfo, %struct.FmgrInfo, ptr, i32, i32, ptr, i32, ptr, ptr }
%struct.MultirangeType = type { i32, i32, i32 }
%struct.RangeBound = type { i64, i8, i8, i8 }

@.str.2 = private unnamed_addr constant [18 x i8] c"multirangetypes.c\00", align 1
@.str.9 = private unnamed_addr constant [33 x i8] c"type %u is not a multirange type\00", align 1
@__func__.multirange_get_typcache = private unnamed_addr constant [24 x i8] c"multirange_get_typcache\00", align 1
@.str.22 = private unnamed_addr constant [47 x i8] c"could not identify a hash function for type %s\00", align 1
@__func__.hash_multirange_extended = private unnamed_addr constant [25 x i8] c"hash_multirange_extended\00", align 1

; Function Attrs: inlinehint nounwind uwtable
define internal i64 @UInt64GetDatum(i64 noundef %0) #2 {
  %2 = alloca i64, align 8
  store i64 %0, ptr %2, align 8
  %3 = load i64, ptr %2, align 8
  ret i64 %3
}

; Function Attrs: inlinehint nounwind uwtable
define internal ptr @DatumGetPointer(i64 noundef %0) #2 {
  %2 = alloca i64, align 8
  store i64 %0, ptr %2, align 8
  %3 = load i64, ptr %2, align 8
  %4 = inttoptr i64 %3 to ptr
  ret ptr %4
}

; Function Attrs: inlinehint nounwind uwtable
define internal i64 @hash_uint32_extended(i32 noundef %0, i64 noundef %1) #2 {
  %3 = alloca i32, align 4
  %4 = alloca i64, align 8
  store i32 %0, ptr %3, align 4
  store i64 %1, ptr %4, align 8
  %5 = load i32, ptr %3, align 4
  %6 = load i64, ptr %4, align 8
  %7 = call i64 @hash_bytes_uint32_extended(i32 noundef %5, i64 noundef %6)
  %8 = call i64 @UInt64GetDatum(i64 noundef %7)
  ret i64 %8
}

; Function Attrs: inlinehint nounwind uwtable
define internal i64 @DatumGetInt64(i64 noundef %0) #2 {
  %2 = alloca i64, align 8
  store i64 %0, ptr %2, align 8
  %3 = load i64, ptr %2, align 8
  ret i64 %3
}

; Function Attrs: inlinehint nounwind uwtable
define internal i64 @DatumGetUInt64(i64 noundef %0) #2 {
  %2 = alloca i64, align 8
  store i64 %0, ptr %2, align 8
  %3 = load i64, ptr %2, align 8
  ret i64 %3
}

; Function Attrs: nounwind uwtable
define dso_local ptr @multirange_get_typcache(ptr noundef %0, i32 noundef %1) #0 {
  %3 = alloca ptr, align 8
  %4 = alloca i32, align 4
  %5 = alloca ptr, align 8
  store ptr %0, ptr %3, align 8
  store i32 %1, ptr %4, align 4
  call void @llvm.lifetime.start.p0(i64 8, ptr %5) #9
  %6 = load ptr, ptr %3, align 8
  %7 = getelementptr inbounds nuw %struct.FunctionCallInfoBaseData, ptr %6, i32 0, i32 0
  %8 = load ptr, ptr %7, align 8
  %9 = getelementptr inbounds nuw %struct.FmgrInfo, ptr %8, i32 0, i32 6
  %10 = load ptr, ptr %9, align 8
  store ptr %10, ptr %5, align 8
  %11 = load ptr, ptr %5, align 8
  %12 = icmp eq ptr %11, null
  br i1 %12, label %19, label %13

13:                                               ; preds = %2
  %14 = load ptr, ptr %5, align 8
  %15 = getelementptr inbounds nuw %struct.TypeCacheEntry, ptr %14, i32 0, i32 0
  %16 = load i32, ptr %15, align 8
  %17 = load i32, ptr %4, align 4
  %18 = icmp ne i32 %16, %17
  br i1 %18, label %19, label %44

19:                                               ; preds = %13, %2
  %20 = load i32, ptr %4, align 4
  %21 = call ptr @lookup_type_cache(i32 noundef %20, i32 noundef 65536)
  store ptr %21, ptr %5, align 8
  %22 = load ptr, ptr %5, align 8
  %23 = getelementptr inbounds nuw %struct.TypeCacheEntry, ptr %22, i32 0, i32 33
  %24 = load ptr, ptr %23, align 8
  %25 = icmp eq ptr %24, null
  br i1 %25, label %26, label %38

26:                                               ; preds = %19
  br label %27

27:                                               ; preds = %26
  br i1 true, label %28, label %30

28:                                               ; preds = %27
  %29 = call zeroext i1 @errstart_cold(i32 noundef 21, ptr noundef null) #11
  br i1 %29, label %32, label %35

30:                                               ; preds = %27
  %31 = call zeroext i1 @errstart(i32 noundef 21, ptr noundef null)
  br i1 %31, label %32, label %35

32:                                               ; preds = %30, %28
  %33 = load i32, ptr %4, align 4
  %34 = call i32 (ptr, ...) @errmsg_internal(ptr noundef @.str.9, i32 noundef %33)
  call void @errfinish(ptr noundef @.str.2, i32 noundef 557, ptr noundef @__func__.multirange_get_typcache)
  br label %35

35:                                               ; preds = %32, %30, %28
  unreachable

36:                                               ; No predecessors!
  br label %37

37:                                               ; preds = %36
  br label %38

38:                                               ; preds = %37, %19
  %39 = load ptr, ptr %5, align 8
  %40 = load ptr, ptr %3, align 8
  %41 = getelementptr inbounds nuw %struct.FunctionCallInfoBaseData, ptr %40, i32 0, i32 0
  %42 = load ptr, ptr %41, align 8
  %43 = getelementptr inbounds nuw %struct.FmgrInfo, ptr %42, i32 0, i32 6
  store ptr %39, ptr %43, align 8
  br label %44

44:                                               ; preds = %38, %13
  %45 = load ptr, ptr %5, align 8
  call void @llvm.lifetime.end.p0(i64 8, ptr %5) #9
  ret ptr %45
}

; Function Attrs: inlinehint nounwind uwtable
define internal ptr @DatumGetMultirangeTypeP(i64 noundef %0) #2 {
  %2 = alloca i64, align 8
  store i64 %0, ptr %2, align 8
  %3 = load i64, ptr %2, align 8
  %4 = call ptr @DatumGetPointer(i64 noundef %3)
  %5 = call ptr @pg_detoast_datum(ptr noundef %4)
  ret ptr %5
}

; Function Attrs: nounwind uwtable
define dso_local i64 @hash_multirange_extended(ptr noundef %0) #0 {
  %2 = alloca ptr, align 8
  %3 = alloca ptr, align 8
  %4 = alloca i64, align 8
  %5 = alloca i64, align 8
  %6 = alloca ptr, align 8
  %7 = alloca ptr, align 8
  %8 = alloca i32, align 4
  %9 = alloca i32, align 4
  %10 = alloca %struct.RangeBound, align 8
  %11 = alloca %struct.RangeBound, align 8
  %12 = alloca i8, align 1
  %13 = alloca i64, align 8
  %14 = alloca i64, align 8
  %15 = alloca i64, align 8
  store ptr %0, ptr %2, align 8
  call void @llvm.lifetime.start.p0(i64 8, ptr %3) #9
  %16 = load ptr, ptr %2, align 8
  %17 = getelementptr inbounds nuw %struct.FunctionCallInfoBaseData, ptr %16, i32 0, i32 6
  %18 = getelementptr inbounds [0 x %struct.NullableDatum], ptr %17, i64 0, i64 0
  %19 = getelementptr inbounds nuw %struct.NullableDatum, ptr %18, i32 0, i32 0
  %20 = load i64, ptr %19, align 8
  %21 = call ptr @DatumGetMultirangeTypeP(i64 noundef %20)
  store ptr %21, ptr %3, align 8
  call void @llvm.lifetime.start.p0(i64 8, ptr %4) #9
  %22 = load ptr, ptr %2, align 8
  %23 = getelementptr inbounds nuw %struct.FunctionCallInfoBaseData, ptr %22, i32 0, i32 6
  %24 = getelementptr inbounds [0 x %struct.NullableDatum], ptr %23, i64 0, i64 1
  %25 = getelementptr inbounds nuw %struct.NullableDatum, ptr %24, i32 0, i32 0
  %26 = load i64, ptr %25, align 8
  store i64 %26, ptr %4, align 8
  call void @llvm.lifetime.start.p0(i64 8, ptr %5) #9
  store i64 1, ptr %5, align 8
  call void @llvm.lifetime.start.p0(i64 8, ptr %6) #9
  call void @llvm.lifetime.start.p0(i64 8, ptr %7) #9
  call void @llvm.lifetime.start.p0(i64 4, ptr %8) #9
  call void @llvm.lifetime.start.p0(i64 4, ptr %9) #9
  %27 = load ptr, ptr %2, align 8
  %28 = load ptr, ptr %3, align 8
  %29 = getelementptr inbounds nuw %struct.MultirangeType, ptr %28, i32 0, i32 1
  %30 = load i32, ptr %29, align 4
  %31 = call ptr @multirange_get_typcache(ptr noundef %27, i32 noundef %30)
  store ptr %31, ptr %6, align 8
  %32 = load ptr, ptr %6, align 8
  %33 = getelementptr inbounds nuw %struct.TypeCacheEntry, ptr %32, i32 0, i32 33
  %34 = load ptr, ptr %33, align 8
  %35 = getelementptr inbounds nuw %struct.TypeCacheEntry, ptr %34, i32 0, i32 27
  %36 = load ptr, ptr %35, align 8
  store ptr %36, ptr %7, align 8
  %37 = load ptr, ptr %7, align 8
  %38 = getelementptr inbounds nuw %struct.TypeCacheEntry, ptr %37, i32 0, i32 24
  %39 = getelementptr inbounds nuw %struct.FmgrInfo, ptr %38, i32 0, i32 1
  %40 = load i32, ptr %39, align 8
  %41 = icmp ne i32 %40, 0
  br i1 %41, label %69, label %42

42:                                               ; preds = %1
  %43 = load ptr, ptr %7, align 8
  %44 = getelementptr inbounds nuw %struct.TypeCacheEntry, ptr %43, i32 0, i32 0
  %45 = load i32, ptr %44, align 8
  %46 = call ptr @lookup_type_cache(i32 noundef %45, i32 noundef 32768)
  store ptr %46, ptr %7, align 8
  %47 = load ptr, ptr %7, align 8
  %48 = getelementptr inbounds nuw %struct.TypeCacheEntry, ptr %47, i32 0, i32 24
  %49 = getelementptr inbounds nuw %struct.FmgrInfo, ptr %48, i32 0, i32 1
  %50 = load i32, ptr %49, align 8
  %51 = icmp ne i32 %50, 0
  br i1 %51, label %68, label %52

52:                                               ; preds = %42
  br label %53

53:                                               ; preds = %52
  br i1 true, label %54, label %56

54:                                               ; preds = %53
  %55 = call zeroext i1 @errstart_cold(i32 noundef 21, ptr noundef null) #11
  br i1 %55, label %58, label %65

56:                                               ; preds = %53
  %57 = call zeroext i1 @errstart(i32 noundef 21, ptr noundef null)
  br i1 %57, label %58, label %65

58:                                               ; preds = %56, %54
  %59 = call i32 @errcode(i32 noundef 52461700)
  %60 = load ptr, ptr %7, align 8
  %61 = getelementptr inbounds nuw %struct.TypeCacheEntry, ptr %60, i32 0, i32 0
  %62 = load i32, ptr %61, align 8
  %63 = call ptr @format_type_be(i32 noundef %62)
  %64 = call i32 (ptr, ...) @errmsg(ptr noundef @.str.22, ptr noundef %63)
  call void @errfinish(ptr noundef @.str.2, i32 noundef 2878, ptr noundef @__func__.hash_multirange_extended)
  br label %65

65:                                               ; preds = %58, %56, %54
  unreachable

66:                                               ; No predecessors!
  br label %67

67:                                               ; preds = %66
  br label %68

68:                                               ; preds = %67, %42
  br label %69

69:                                               ; preds = %68, %1
  %70 = load ptr, ptr %3, align 8
  %71 = getelementptr inbounds nuw %struct.MultirangeType, ptr %70, i32 0, i32 2
  %72 = load i32, ptr %71, align 4
  store i32 %72, ptr %8, align 4
  store i32 0, ptr %9, align 4
  br label %73

73:                                               ; preds = %159, %69
  %74 = load i32, ptr %9, align 4
  %75 = load i32, ptr %8, align 4
  %76 = icmp slt i32 %74, %75
  br i1 %76, label %77, label %162

77:                                               ; preds = %73
  call void @llvm.lifetime.start.p0(i64 16, ptr %10) #9
  call void @llvm.lifetime.start.p0(i64 16, ptr %11) #9
  call void @llvm.lifetime.start.p0(i64 1, ptr %12) #9
  %78 = load ptr, ptr %3, align 8
  %79 = getelementptr inbounds nuw i8, ptr %78, i64 12
  %80 = load ptr, ptr %3, align 8
  %81 = getelementptr inbounds nuw %struct.MultirangeType, ptr %80, i32 0, i32 2
  %82 = load i32, ptr %81, align 4
  %83 = sub i32 %82, 1
  %84 = zext i32 %83 to i64
  %85 = mul i64 %84, 4
  %86 = getelementptr inbounds nuw i8, ptr %79, i64 %85
  %87 = load i32, ptr %9, align 4
  %88 = sext i32 %87 to i64
  %89 = getelementptr inbounds i8, ptr %86, i64 %88
  %90 = load i8, ptr %89, align 1
  store i8 %90, ptr %12, align 1
  call void @llvm.lifetime.start.p0(i64 8, ptr %13) #9
  call void @llvm.lifetime.start.p0(i64 8, ptr %14) #9
  call void @llvm.lifetime.start.p0(i64 8, ptr %15) #9
  %91 = load ptr, ptr %6, align 8
  %92 = getelementptr inbounds nuw %struct.TypeCacheEntry, ptr %91, i32 0, i32 33
  %93 = load ptr, ptr %92, align 8
  %94 = load ptr, ptr %3, align 8
  %95 = load i32, ptr %9, align 4
  call void @multirange_get_bounds(ptr noundef %93, ptr noundef %94, i32 noundef %95, ptr noundef %10, ptr noundef %11)
  %96 = load i8, ptr %12, align 1
  %97 = zext i8 %96 to i32
  %98 = and i32 %97, 41
  %99 = icmp ne i32 %98, 0
  br i1 %99, label %113, label %100

100:                                              ; preds = %77
  %101 = load ptr, ptr %7, align 8
  %102 = getelementptr inbounds nuw %struct.TypeCacheEntry, ptr %101, i32 0, i32 24
  %103 = load ptr, ptr %6, align 8
  %104 = getelementptr inbounds nuw %struct.TypeCacheEntry, ptr %103, i32 0, i32 33
  %105 = load ptr, ptr %104, align 8
  %106 = getelementptr inbounds nuw %struct.TypeCacheEntry, ptr %105, i32 0, i32 29
  %107 = load i32, ptr %106, align 4
  %108 = getelementptr inbounds nuw %struct.RangeBound, ptr %10, i32 0, i32 0
  %109 = load i64, ptr %108, align 8
  %110 = load i64, ptr %4, align 8
  %111 = call i64 @FunctionCall2Coll(ptr noundef %102, i32 noundef %107, i64 noundef %109, i64 noundef %110)
  %112 = call i64 @DatumGetUInt64(i64 noundef %111)
  store i64 %112, ptr %13, align 8
  br label %114

113:                                              ; preds = %77
  store i64 0, ptr %13, align 8
  br label %114

114:                                              ; preds = %113, %100
  %115 = load i8, ptr %12, align 1
  %116 = zext i8 %115 to i32
  %117 = and i32 %116, 81
  %118 = icmp ne i32 %117, 0
  br i1 %118, label %132, label %119

119:                                              ; preds = %114
  %120 = load ptr, ptr %7, align 8
  %121 = getelementptr inbounds nuw %struct.TypeCacheEntry, ptr %120, i32 0, i32 24
  %122 = load ptr, ptr %6, align 8
  %123 = getelementptr inbounds nuw %struct.TypeCacheEntry, ptr %122, i32 0, i32 33
  %124 = load ptr, ptr %123, align 8
  %125 = getelementptr inbounds nuw %struct.TypeCacheEntry, ptr %124, i32 0, i32 29
  %126 = load i32, ptr %125, align 4
  %127 = getelementptr inbounds nuw %struct.RangeBound, ptr %11, i32 0, i32 0
  %128 = load i64, ptr %127, align 8
  %129 = load i64, ptr %4, align 8
  %130 = call i64 @FunctionCall2Coll(ptr noundef %121, i32 noundef %126, i64 noundef %128, i64 noundef %129)
  %131 = call i64 @DatumGetUInt64(i64 noundef %130)
  store i64 %131, ptr %14, align 8
  br label %133

132:                                              ; preds = %114
  store i64 0, ptr %14, align 8
  br label %133

133:                                              ; preds = %132, %119
  %134 = load i8, ptr %12, align 1
  %135 = zext i8 %134 to i32
  %136 = load i64, ptr %4, align 8
  %137 = call i64 @DatumGetInt64(i64 noundef %136)
  %138 = call i64 @hash_uint32_extended(i32 noundef %135, i64 noundef %137)
  %139 = call i64 @DatumGetUInt64(i64 noundef %138)
  store i64 %139, ptr %15, align 8
  %140 = load i64, ptr %13, align 8
  %141 = load i64, ptr %15, align 8
  %142 = xor i64 %141, %140
  store i64 %142, ptr %15, align 8
  %143 = load i64, ptr %15, align 8
  %144 = shl i64 %143, 1
  %145 = and i64 %144, -4294967298
  %146 = load i64, ptr %15, align 8
  %147 = lshr i64 %146, 31
  %148 = and i64 %147, 4294967297
  %149 = or i64 %145, %148
  store i64 %149, ptr %15, align 8
  %150 = load i64, ptr %14, align 8
  %151 = load i64, ptr %15, align 8
  %152 = xor i64 %151, %150
  store i64 %152, ptr %15, align 8
  %153 = load i64, ptr %5, align 8
  %154 = shl i64 %153, 5
  %155 = load i64, ptr %5, align 8
  %156 = sub i64 %154, %155
  %157 = load i64, ptr %15, align 8
  %158 = add i64 %156, %157
  store i64 %158, ptr %5, align 8
  call void @llvm.lifetime.end.p0(i64 8, ptr %15) #9
  call void @llvm.lifetime.end.p0(i64 8, ptr %14) #9
  call void @llvm.lifetime.end.p0(i64 8, ptr %13) #9
  call void @llvm.lifetime.end.p0(i64 1, ptr %12) #9
  call void @llvm.lifetime.end.p0(i64 16, ptr %11) #9
  call void @llvm.lifetime.end.p0(i64 16, ptr %10) #9
  br label %159

159:                                              ; preds = %133
  %160 = load i32, ptr %9, align 4
  %161 = add i32 %160, 1
  store i32 %161, ptr %9, align 4
  br label %73, !llvm.loop !35

162:                                              ; preds = %73
  br label %163

163:                                              ; preds = %162
  %164 = load ptr, ptr %3, align 8
  %165 = load ptr, ptr %2, align 8
  %166 = getelementptr inbounds nuw %struct.FunctionCallInfoBaseData, ptr %165, i32 0, i32 6
  %167 = getelementptr inbounds [0 x %struct.NullableDatum], ptr %166, i64 0, i64 0
  %168 = getelementptr inbounds nuw %struct.NullableDatum, ptr %167, i32 0, i32 0
  %169 = load i64, ptr %168, align 8
  %170 = call ptr @DatumGetPointer(i64 noundef %169)
  %171 = icmp ne ptr %164, %170
  br i1 %171, label %172, label %174

172:                                              ; preds = %163
  %173 = load ptr, ptr %3, align 8
  call void @pfree(ptr noundef %173)
  br label %174

174:                                              ; preds = %172, %163
  br label %175

175:                                              ; preds = %174
  br label %176

176:                                              ; preds = %175
  %177 = load i64, ptr %5, align 8
  %178 = call i64 @UInt64GetDatum(i64 noundef %177)
  call void @llvm.lifetime.end.p0(i64 4, ptr %9) #9
  call void @llvm.lifetime.end.p0(i64 4, ptr %8) #9
  call void @llvm.lifetime.end.p0(i64 8, ptr %7) #9
  call void @llvm.lifetime.end.p0(i64 8, ptr %6) #9
  call void @llvm.lifetime.end.p0(i64 8, ptr %5) #9
  call void @llvm.lifetime.end.p0(i64 8, ptr %4) #9
  call void @llvm.lifetime.end.p0(i64 8, ptr %3) #9
  ret i64 %178
}