; Function Attrs: nounwind uwtable
define dso_local i64 @hash_multirange_extended(ptr noundef readonly captures(none) %0) local_unnamed_addr #0 {
  %2 = alloca %struct.RangeBound, align 8
  %3 = alloca %struct.RangeBound, align 8
  %4 = getelementptr inbounds nuw i8, ptr %0, i64 32
  %5 = load i64, ptr %4, align 8
  %6 = inttoptr i64 %5 to ptr
  %7 = tail call ptr @pg_detoast_datum(ptr noundef %6) #11
  %8 = getelementptr inbounds nuw i8, ptr %0, i64 48
  %9 = load i64, ptr %8, align 8
  %10 = getelementptr inbounds nuw i8, ptr %7, i64 4
  %11 = load i32, ptr %10, align 4
  %12 = load ptr, ptr %0, align 8
  %13 = getelementptr inbounds nuw i8, ptr %12, i64 24
  %14 = load ptr, ptr %13, align 8
  %15 = icmp eq ptr %14, null
  br i1 %15, label %18, label %16

16:                                               ; preds = %1
  %17 = load i32, ptr %14, align 8
  %.not.i = icmp eq i32 %17, %11
  br i1 %.not.i, label %multirange_get_typcache.exit, label %18

18:                                               ; preds = %16, %1
  %19 = tail call ptr @lookup_type_cache(i32 noundef %11, i32 noundef 65536) #11
  %20 = getelementptr inbounds nuw i8, ptr %19, i64 440
  %21 = load ptr, ptr %20, align 8
  %22 = icmp eq ptr %21, null
  br i1 %22, label %23, label %26

23:                                               ; preds = %18
  %24 = tail call zeroext i1 @errstart_cold(i32 noundef 21, ptr noundef null) #13
  tail call void @llvm.assume(i1 %24)
  %25 = tail call i32 (ptr, ...) @errmsg_internal(ptr noundef nonnull @.str.9, i32 noundef %11) #11
  tail call void @errfinish(ptr noundef nonnull @.str.2, i32 noundef 557, ptr noundef nonnull @__func__.multirange_get_typcache) #11
  unreachable

26:                                               ; preds = %18
  %27 = load ptr, ptr %0, align 8
  %28 = getelementptr inbounds nuw i8, ptr %27, i64 24
  store ptr %19, ptr %28, align 8
  br label %multirange_get_typcache.exit

multirange_get_typcache.exit:                     ; preds = %16, %26
  %.0.i = phi ptr [ %19, %26 ], [ %14, %16 ]
  %29 = getelementptr inbounds nuw i8, ptr %.0.i, i64 440
  %30 = load ptr, ptr %29, align 8
  %31 = getelementptr inbounds nuw i8, ptr %30, i64 280
  %32 = load ptr, ptr %31, align 8
  %33 = getelementptr inbounds nuw i8, ptr %32, i64 224
  %34 = load i32, ptr %33, align 8
  %.not = icmp eq i32 %34, 0
  br i1 %.not, label %35, label %46

35:                                               ; preds = %multirange_get_typcache.exit
  %36 = load i32, ptr %32, align 8
  %37 = tail call ptr @lookup_type_cache(i32 noundef %36, i32 noundef 32768) #11
  %38 = getelementptr inbounds nuw i8, ptr %37, i64 224
  %39 = load i32, ptr %38, align 8
  %.not46 = icmp eq i32 %39, 0
  br i1 %.not46, label %40, label %46

40:                                               ; preds = %35
  %41 = tail call zeroext i1 @errstart_cold(i32 noundef 21, ptr noundef null) #13
  tail call void @llvm.assume(i1 %41)
  %42 = tail call i32 @errcode(i32 noundef 52461700) #11
  %43 = load i32, ptr %37, align 8
  %44 = tail call ptr @format_type_be(i32 noundef %43) #11
  %45 = tail call i32 (ptr, ...) @errmsg(ptr noundef nonnull @.str.22, ptr noundef %44) #11
  tail call void @errfinish(ptr noundef nonnull @.str.2, i32 noundef 2878, ptr noundef nonnull @__func__.hash_multirange_extended) #11
  unreachable

46:                                               ; preds = %35, %multirange_get_typcache.exit
  %.043 = phi ptr [ %32, %multirange_get_typcache.exit ], [ %37, %35 ]
  %47 = getelementptr inbounds nuw i8, ptr %7, i64 8
  %48 = load i32, ptr %47, align 4
  %49 = icmp sgt i32 %48, 0
  br i1 %49, label %.lr.ph, label %._crit_edge

.lr.ph:                                           ; preds = %46
  %50 = getelementptr inbounds nuw i8, ptr %7, i64 12
  %51 = getelementptr inbounds nuw i8, ptr %.043, i64 216
  %wide.trip.count = zext nneg i32 %48 to i64
  br label %52

52:                                               ; preds = %.lr.ph, %78
  %indvars.iv = phi i64 [ 0, %.lr.ph ], [ %indvars.iv.next, %78 ]
  %.051 = phi i64 [ 1, %.lr.ph ], [ %88, %78 ]
  call void @llvm.lifetime.start.p0(i64 16, ptr nonnull %2) #11
  call void @llvm.lifetime.start.p0(i64 16, ptr nonnull %3) #11
  %53 = load i32, ptr %47, align 4
  %54 = add i32 %53, -1
  %55 = zext i32 %54 to i64
  %56 = shl nuw nsw i64 %55, 2
  %57 = getelementptr inbounds nuw i8, ptr %50, i64 %56
  %58 = getelementptr inbounds nuw i8, ptr %57, i64 %indvars.iv
  %59 = load i8, ptr %58, align 1
  %60 = load ptr, ptr %29, align 8
  %61 = trunc nuw nsw i64 %indvars.iv to i32
  call void @multirange_get_bounds(ptr noundef %60, ptr noundef nonnull %7, i32 noundef %61, ptr noundef nonnull %2, ptr noundef nonnull %3)
  %62 = zext i8 %59 to i32
  %63 = and i32 %62, 41
  %.not48 = icmp eq i32 %63, 0
  br i1 %.not48, label %64, label %70

64:                                               ; preds = %52
  %65 = load ptr, ptr %29, align 8
  %66 = getelementptr inbounds nuw i8, ptr %65, i64 292
  %67 = load i32, ptr %66, align 4
  %68 = load i64, ptr %2, align 8
  %69 = tail call i64 @FunctionCall2Coll(ptr noundef nonnull %51, i32 noundef %67, i64 noundef %68, i64 noundef %9) #11
  br label %70

70:                                               ; preds = %52, %64
  %.042 = phi i64 [ %69, %64 ], [ 0, %52 ]
  %71 = and i32 %62, 81
  %.not49 = icmp eq i32 %71, 0
  br i1 %.not49, label %72, label %78

72:                                               ; preds = %70
  %73 = load ptr, ptr %29, align 8
  %74 = getelementptr inbounds nuw i8, ptr %73, i64 292
  %75 = load i32, ptr %74, align 4
  %76 = load i64, ptr %3, align 8
  %77 = tail call i64 @FunctionCall2Coll(ptr noundef nonnull %51, i32 noundef %75, i64 noundef %76, i64 noundef %9) #11
  br label %78

78:                                               ; preds = %70, %72
  %.041 = phi i64 [ %77, %72 ], [ 0, %70 ]
  %79 = tail call i64 @hash_bytes_uint32_extended(i32 noundef range(i32 0, 256) %62, i64 noundef %9) #11
  %80 = xor i64 %79, %.042
  %81 = shl i64 %80, 1
  %82 = and i64 %81, -4294967298
  %83 = lshr i64 %80, 31
  %84 = and i64 %83, 4294967297
  %85 = or disjoint i64 %82, %84
  %86 = xor i64 %85, %.041
  %87 = mul i64 %.051, 31
  %88 = add i64 %86, %87
  call void @llvm.lifetime.end.p0(i64 16, ptr nonnull %3) #11
  call void @llvm.lifetime.end.p0(i64 16, ptr nonnull %2) #11
  %indvars.iv.next = add nuw nsw i64 %indvars.iv, 1
  %exitcond.not = icmp eq i64 %indvars.iv.next, %wide.trip.count
  br i1 %exitcond.not, label %._crit_edge, label %52, !llvm.loop !41

._crit_edge:                                      ; preds = %78, %46
  %.0.lcssa = phi i64 [ 1, %46 ], [ %88, %78 ]
  %89 = load i64, ptr %4, align 8
  %90 = inttoptr i64 %89 to ptr
  %.not47 = icmp eq ptr %7, %90
  br i1 %.not47, label %92, label %91

91:                                               ; preds = %._crit_edge
  tail call void @pfree(ptr noundef nonnull %7) #11
  br label %92

92:                                               ; preds = %91, %._crit_edge
  ret i64 %.0.lcssa
}